; Function Attrs: mustprogress uwtable
define dso_local noundef ptr @_Z15luaL_optlstringP9lua_StateiPKcPm(ptr noundef %0, i32 noundef %1, ptr noundef readonly %2, ptr noundef %3) local_unnamed_addr #2 {
  %5 = tail call noundef i32 @_Z8lua_typeP9lua_Statei(ptr noundef %0, i32 noundef %1)
  %6 = icmp slt i32 %5, 1
  br i1 %6, label %7, label %13

7:                                                ; preds = %4
  %.not = icmp eq ptr %3, null
  br i1 %.not, label %_Z17luaL_checklstringP9lua_StateiPm.exit, label %8

8:                                                ; preds = %7
  %.not12 = icmp eq ptr %2, null
  br i1 %.not12, label %11, label %9

9:                                                ; preds = %8
  %10 = tail call i64 @strlen(ptr noundef nonnull dereferenceable(1) %2) #10
  br label %11

11:                                               ; preds = %8, %9
  %12 = phi i64 [ %10, %9 ], [ 0, %8 ]
  store i64 %12, ptr %3, align 8
  br label %_Z17luaL_checklstringP9lua_StateiPm.exit

13:                                               ; preds = %4
  %14 = tail call noundef ptr @_Z13lua_tolstringP9lua_StateiPm(ptr noundef %0, i32 noundef %1, ptr noundef %3)
  %.not.i = icmp eq ptr %14, null
  br i1 %.not.i, label %15, label %_Z17luaL_checklstringP9lua_StateiPm.exit

15:                                               ; preds = %13
  tail call fastcc void @_ZL9tag_errorP9lua_Stateii(ptr noundef %0, i32 noundef %1, i32 noundef 5) #11
  unreachable

_Z17luaL_checklstringP9lua_StateiPm.exit:         ; preds = %13, %7, %11
  %.0 = phi ptr [ %2, %11 ], [ %2, %7 ], [ %14, %13 ]
  ret ptr %.0
}